target datalayout = "e-m:e-p270:32:32-p271:32:32-p272:64:64-i64:64-i128:128-f80:128-n8:16:32:64-S128"
target triple = "x86_64-pc-linux-gnu"

%struct._zval_struct = type { %union._zend_value, %union.anon.9, %union.anon.12 }
%union._zend_value = type { i64 }
%union.anon.9 = type { i32 }
%union.anon.12 = type { i32 }
%struct._zend_refcounted_h = type { i32, %union.anon.0 }
%union.anon.0 = type { i32 }
%struct._xmlNode = type { ptr, i32, ptr, ptr, ptr, ptr, ptr, ptr, ptr, ptr, ptr, ptr, ptr, ptr, i16, i16 }
%struct._dom_object = type { ptr, ptr, ptr, %struct._zend_object }
%struct._zend_object = type { %struct._zend_refcounted_h, i32, ptr, ptr, ptr, [1 x %struct._zval_struct] }
%struct.dom_object_namespace_node = type { ptr, %struct._dom_object }
%struct._xmlNs = type { ptr, i32, ptr, ptr, ptr, ptr }

@.str.159 = private unnamed_addr constant [6 x i8] c"xmlns\00", align 1

; Function Attrs: nounwind uwtable
define internal ptr @php_dom_namespace_node_obj_from_obj(ptr noundef %0) #0 {
  %2 = alloca ptr, align 8
  store ptr %0, ptr %2, align 8
  %3 = load ptr, ptr %2, align 8
  %4 = getelementptr inbounds i8, ptr %3, i64 -32
  ret ptr %4
}

; Function Attrs: nounwind uwtable
define internal ptr @php_dom_create_fake_namespace_decl_node_ptr(ptr noundef %0, ptr noundef %1) #0 {
  %3 = alloca ptr, align 8
  %4 = alloca ptr, align 8
  %5 = alloca ptr, align 8
  %6 = alloca ptr, align 8
  store ptr %0, ptr %3, align 8
  store ptr %1, ptr %4, align 8
  %7 = load ptr, ptr %4, align 8
  %8 = getelementptr inbounds %struct._xmlNs, ptr %7, i32 0, i32 2
  %9 = load ptr, ptr %8, align 8
  %10 = call ptr @xmlNewNs(ptr noundef null, ptr noundef %9, ptr noundef null)
  store ptr %10, ptr %6, align 8
  %11 = load ptr, ptr %4, align 8
  %12 = getelementptr inbounds %struct._xmlNs, ptr %11, i32 0, i32 3
  %13 = load ptr, ptr %12, align 8
  %14 = icmp ne ptr %13, null
  br i1 %14, label %15, label %32

15:                                               ; preds = %2
  %16 = load ptr, ptr %4, align 8
  %17 = getelementptr inbounds %struct._xmlNs, ptr %16, i32 0, i32 3
  %18 = load ptr, ptr %17, align 8
  %19 = call ptr @xmlStrdup(ptr noundef %18)
  %20 = load ptr, ptr %6, align 8
  %21 = getelementptr inbounds %struct._xmlNs, ptr %20, i32 0, i32 3
  store ptr %19, ptr %21, align 8
  %22 = load ptr, ptr %3, align 8
  %23 = getelementptr inbounds %struct._xmlNode, ptr %22, i32 0, i32 8
  %24 = load ptr, ptr %23, align 8
  %25 = load ptr, ptr %4, align 8
  %26 = getelementptr inbounds %struct._xmlNs, ptr %25, i32 0, i32 3
  %27 = load ptr, ptr %26, align 8
  %28 = load ptr, ptr %4, align 8
  %29 = getelementptr inbounds %struct._xmlNs, ptr %28, i32 0, i32 2
  %30 = load ptr, ptr %29, align 8
  %31 = call ptr @xmlNewDocNode(ptr noundef %24, ptr noundef null, ptr noundef %27, ptr noundef %30)
  store ptr %31, ptr %5, align 8
  br label %40

32:                                               ; preds = %2
  %33 = load ptr, ptr %3, align 8
  %34 = getelementptr inbounds %struct._xmlNode, ptr %33, i32 0, i32 8
  %35 = load ptr, ptr %34, align 8
  %36 = load ptr, ptr %4, align 8
  %37 = getelementptr inbounds %struct._xmlNs, ptr %36, i32 0, i32 2
  %38 = load ptr, ptr %37, align 8
  %39 = call ptr @xmlNewDocNode(ptr noundef %35, ptr noundef null, ptr noundef @.str.159, ptr noundef %38)
  store ptr %39, ptr %5, align 8
  br label %40

40:                                               ; preds = %32, %15
  %41 = load ptr, ptr %5, align 8
  %42 = getelementptr inbounds %struct._xmlNode, ptr %41, i32 0, i32 1
  store i32 18, ptr %42, align 8
  %43 = load ptr, ptr %3, align 8
  %44 = load ptr, ptr %5, align 8
  %45 = getelementptr inbounds %struct._xmlNode, ptr %44, i32 0, i32 5
  store ptr %43, ptr %45, align 8
  %46 = load ptr, ptr %6, align 8
  %47 = load ptr, ptr %5, align 8
  %48 = getelementptr inbounds %struct._xmlNode, ptr %47, i32 0, i32 9
  store ptr %46, ptr %48, align 8
  %49 = load ptr, ptr %5, align 8
  ret ptr %49
}

; Function Attrs: nounwind uwtable
define hidden ptr @php_dom_create_fake_namespace_decl(ptr noundef %0, ptr noundef %1, ptr noundef %2, ptr noundef %3) #0 {
  %5 = alloca ptr, align 8
  %6 = alloca ptr, align 8
  %7 = alloca ptr, align 8
  %8 = alloca ptr, align 8
  %9 = alloca ptr, align 8
  store ptr %0, ptr %5, align 8
  store ptr %1, ptr %6, align 8
  store ptr %2, ptr %7, align 8
  store ptr %3, ptr %8, align 8
  %10 = load ptr, ptr %5, align 8
  %11 = load ptr, ptr %6, align 8
  %12 = call ptr @php_dom_create_fake_namespace_decl_node_ptr(ptr noundef %10, ptr noundef %11)
  store ptr %12, ptr %9, align 8
  %13 = load ptr, ptr %9, align 8
  %14 = load ptr, ptr %7, align 8
  %15 = load ptr, ptr %8, align 8
  %16 = call zeroext i1 @php_dom_create_object(ptr noundef %13, ptr noundef %14, ptr noundef %15)
  %17 = load ptr, ptr %8, align 8
  %18 = load ptr, ptr %7, align 8
  %19 = getelementptr inbounds %struct._zval_struct, ptr %18, i32 0, i32 0
  %20 = load ptr, ptr %19, align 8
  %21 = call ptr @php_dom_namespace_node_obj_from_obj(ptr noundef %20)
  %22 = getelementptr inbounds %struct.dom_object_namespace_node, ptr %21, i32 0, i32 0
  store ptr %17, ptr %22, align 8
  %23 = load ptr, ptr %9, align 8
  ret ptr %23
}