; Function Attrs: nounwind uwtable
define hidden noundef ptr @php_dom_create_fake_namespace_decl(ptr noundef %0, ptr nocapture noundef readonly %1, ptr noundef %2, ptr noundef %3) local_unnamed_addr #1 {
  %5 = getelementptr inbounds i8, ptr %1, i64 16
  %6 = load ptr, ptr %5, align 8
  %7 = tail call ptr @xmlNewNs(ptr noundef null, ptr noundef %6, ptr noundef null) #16
  %8 = getelementptr inbounds i8, ptr %1, i64 24
  %9 = load ptr, ptr %8, align 8
  %.not.i = icmp eq ptr %9, null
  br i1 %.not.i, label %18, label %10

10:                                               ; preds = %4
  %11 = tail call ptr @xmlStrdup(ptr noundef nonnull %9) #16
  %12 = getelementptr inbounds i8, ptr %7, i64 24
  store ptr %11, ptr %12, align 8
  %13 = getelementptr inbounds i8, ptr %0, i64 64
  %14 = load ptr, ptr %13, align 8
  %15 = load ptr, ptr %8, align 8
  %16 = load ptr, ptr %5, align 8
  %17 = tail call ptr @xmlNewDocNode(ptr noundef %14, ptr noundef null, ptr noundef %15, ptr noundef %16) #16
  br label %php_dom_create_fake_namespace_decl_node_ptr.exit

18:                                               ; preds = %4
  %19 = getelementptr inbounds i8, ptr %0, i64 64
  %20 = load ptr, ptr %19, align 8
  %21 = load ptr, ptr %5, align 8
  %22 = tail call ptr @xmlNewDocNode(ptr noundef %20, ptr noundef null, ptr noundef nonnull @.str.159, ptr noundef %21) #16
  br label %php_dom_create_fake_namespace_decl_node_ptr.exit

php_dom_create_fake_namespace_decl_node_ptr.exit: ; preds = %10, %18
  %.0.i = phi ptr [ %17, %10 ], [ %22, %18 ]
  %23 = getelementptr inbounds i8, ptr %.0.i, i64 8
  store i32 18, ptr %23, align 8
  %24 = getelementptr inbounds i8, ptr %.0.i, i64 40
  store ptr %0, ptr %24, align 8
  %25 = getelementptr inbounds i8, ptr %.0.i, i64 72
  store ptr %7, ptr %25, align 8
  %26 = tail call zeroext i1 @php_dom_create_object(ptr noundef %.0.i, ptr noundef %2, ptr noundef %3)
  %27 = load ptr, ptr %2, align 8
  %28 = getelementptr inbounds i8, ptr %27, i64 -32
  store ptr %3, ptr %28, align 8
  ret ptr %.0.i
}